target datalayout = "e-m:e-p270:32:32-p271:32:32-p272:64:64-i64:64-i128:128-f80:128-n8:16:32:64-S128"
target triple = "x86_64-pc-linux-gnu"

%struct.FT_FaceRec_ = type { i64, i64, i64, i64, i64, ptr, ptr, i32, ptr, i32, ptr, %struct.FT_Generic_, %struct.FT_BBox_, i16, i16, i16, i16, i16, i16, i16, i16, ptr, ptr, ptr, ptr, ptr, ptr, %struct.FT_ListRec_, %struct.FT_Generic_, ptr, ptr }
%struct.FT_BBox_ = type { i64, i64, i64, i64 }
%struct.FT_ListRec_ = type { ptr, ptr }
%struct.FT_Generic_ = type { ptr, ptr }
%struct.FT_CharMapRec_ = type { ptr, i32, i16, i16 }

; Function Attrs: nounwind uwtable
define internal i32 @find_unicode_charmap(ptr noundef %0) #0 {
  %2 = alloca i32, align 4
  %3 = alloca ptr, align 8
  %4 = alloca ptr, align 8
  %5 = alloca ptr, align 8
  %6 = alloca i32, align 4
  store ptr %0, ptr %3, align 8, !tbaa !3
  call void @llvm.lifetime.start.p0(i64 8, ptr %4) #10
  call void @llvm.lifetime.start.p0(i64 8, ptr %5) #10
  br label %7

7:                                                ; preds = %1
  br label %8

8:                                                ; preds = %7
  br label %9

9:                                                ; preds = %8
  %10 = load ptr, ptr %3, align 8, !tbaa !3
  %11 = getelementptr inbounds nuw %struct.FT_FaceRec_, ptr %10, i32 0, i32 10
  %12 = load ptr, ptr %11, align 8, !tbaa !445
  store ptr %12, ptr %4, align 8, !tbaa !446
  %13 = load ptr, ptr %4, align 8, !tbaa !446
  %14 = icmp ne ptr %13, null
  br i1 %14, label %16, label %15

15:                                               ; preds = %9
  store i32 38, ptr %2, align 4
  store i32 1, ptr %6, align 4
  br label %102

16:                                               ; preds = %9
  %17 = load ptr, ptr %4, align 8, !tbaa !446
  %18 = load ptr, ptr %3, align 8, !tbaa !3
  %19 = getelementptr inbounds nuw %struct.FT_FaceRec_, ptr %18, i32 0, i32 9
  %20 = load i32, ptr %19, align 8, !tbaa !444
  %21 = sext i32 %20 to i64
  %22 = getelementptr inbounds ptr, ptr %17, i64 %21
  store ptr %22, ptr %5, align 8, !tbaa !446
  br label %23

23:                                               ; preds = %74, %16
  %24 = load ptr, ptr %5, align 8, !tbaa !446
  %25 = getelementptr inbounds ptr, ptr %24, i32 -1
  store ptr %25, ptr %5, align 8, !tbaa !446
  %26 = load ptr, ptr %4, align 8, !tbaa !446
  %27 = icmp uge ptr %25, %26
  br i1 %27, label %28, label %75

28:                                               ; preds = %23
  %29 = load ptr, ptr %5, align 8, !tbaa !446
  %30 = getelementptr inbounds ptr, ptr %29, i64 0
  %31 = load ptr, ptr %30, align 8, !tbaa !447
  %32 = getelementptr inbounds nuw %struct.FT_CharMapRec_, ptr %31, i32 0, i32 1
  %33 = load i32, ptr %32, align 8, !tbaa !448
  %34 = icmp eq i32 %33, 1970170211
  br i1 %34, label %35, label %74

35:                                               ; preds = %28
  %36 = load ptr, ptr %5, align 8, !tbaa !446
  %37 = getelementptr inbounds ptr, ptr %36, i64 0
  %38 = load ptr, ptr %37, align 8, !tbaa !447
  %39 = getelementptr inbounds nuw %struct.FT_CharMapRec_, ptr %38, i32 0, i32 2
  %40 = load i16, ptr %39, align 4, !tbaa !450
  %41 = zext i16 %40 to i32
  %42 = icmp eq i32 %41, 3
  br i1 %42, label %43, label %51

43:                                               ; preds = %35
  %44 = load ptr, ptr %5, align 8, !tbaa !446
  %45 = getelementptr inbounds ptr, ptr %44, i64 0
  %46 = load ptr, ptr %45, align 8, !tbaa !447
  %47 = getelementptr inbounds nuw %struct.FT_CharMapRec_, ptr %46, i32 0, i32 3
  %48 = load i16, ptr %47, align 2, !tbaa !451
  %49 = zext i16 %48 to i32
  %50 = icmp eq i32 %49, 10
  br i1 %50, label %67, label %51

51:                                               ; preds = %43, %35
  %52 = load ptr, ptr %5, align 8, !tbaa !446
  %53 = getelementptr inbounds ptr, ptr %52, i64 0
  %54 = load ptr, ptr %53, align 8, !tbaa !447
  %55 = getelementptr inbounds nuw %struct.FT_CharMapRec_, ptr %54, i32 0, i32 2
  %56 = load i16, ptr %55, align 4, !tbaa !450
  %57 = zext i16 %56 to i32
  %58 = icmp eq i32 %57, 0
  br i1 %58, label %59, label %73

59:                                               ; preds = %51
  %60 = load ptr, ptr %5, align 8, !tbaa !446
  %61 = getelementptr inbounds ptr, ptr %60, i64 0
  %62 = load ptr, ptr %61, align 8, !tbaa !447
  %63 = getelementptr inbounds nuw %struct.FT_CharMapRec_, ptr %62, i32 0, i32 3
  %64 = load i16, ptr %63, align 2, !tbaa !451
  %65 = zext i16 %64 to i32
  %66 = icmp eq i32 %65, 4
  br i1 %66, label %67, label %73

67:                                               ; preds = %59, %43
  %68 = load ptr, ptr %5, align 8, !tbaa !446
  %69 = getelementptr inbounds ptr, ptr %68, i64 0
  %70 = load ptr, ptr %69, align 8, !tbaa !447
  %71 = load ptr, ptr %3, align 8, !tbaa !3
  %72 = getelementptr inbounds nuw %struct.FT_FaceRec_, ptr %71, i32 0, i32 23
  store ptr %70, ptr %72, align 8, !tbaa !353
  store i32 0, ptr %2, align 4
  store i32 1, ptr %6, align 4
  br label %102

73:                                               ; preds = %59, %51
  br label %74

74:                                               ; preds = %73, %28
  br label %23, !llvm.loop !452

75:                                               ; preds = %23
  %76 = load ptr, ptr %4, align 8, !tbaa !446
  %77 = load ptr, ptr %3, align 8, !tbaa !3
  %78 = getelementptr inbounds nuw %struct.FT_FaceRec_, ptr %77, i32 0, i32 9
  %79 = load i32, ptr %78, align 8, !tbaa !444
  %80 = sext i32 %79 to i64
  %81 = getelementptr inbounds ptr, ptr %76, i64 %80
  store ptr %81, ptr %5, align 8, !tbaa !446
  br label %82

82:                                               ; preds = %100, %75
  %83 = load ptr, ptr %5, align 8, !tbaa !446
  %84 = getelementptr inbounds ptr, ptr %83, i32 -1
  store ptr %84, ptr %5, align 8, !tbaa !446
  %85 = load ptr, ptr %4, align 8, !tbaa !446
  %86 = icmp uge ptr %84, %85
  br i1 %86, label %87, label %101

87:                                               ; preds = %82
  %88 = load ptr, ptr %5, align 8, !tbaa !446
  %89 = getelementptr inbounds ptr, ptr %88, i64 0
  %90 = load ptr, ptr %89, align 8, !tbaa !447
  %91 = getelementptr inbounds nuw %struct.FT_CharMapRec_, ptr %90, i32 0, i32 1
  %92 = load i32, ptr %91, align 8, !tbaa !448
  %93 = icmp eq i32 %92, 1970170211
  br i1 %93, label %94, label %100

94:                                               ; preds = %87
  %95 = load ptr, ptr %5, align 8, !tbaa !446
  %96 = getelementptr inbounds ptr, ptr %95, i64 0
  %97 = load ptr, ptr %96, align 8, !tbaa !447
  %98 = load ptr, ptr %3, align 8, !tbaa !3
  %99 = getelementptr inbounds nuw %struct.FT_FaceRec_, ptr %98, i32 0, i32 23
  store ptr %97, ptr %99, align 8, !tbaa !353
  store i32 0, ptr %2, align 4
  store i32 1, ptr %6, align 4
  br label %102

100:                                              ; preds = %87
  br label %82, !llvm.loop !453

101:                                              ; preds = %82
  store i32 38, ptr %2, align 4
  store i32 1, ptr %6, align 4
  br label %102

102:                                              ; preds = %101, %94, %67, %15
  call void @llvm.lifetime.end.p0(i64 8, ptr %5) #10
  call void @llvm.lifetime.end.p0(i64 8, ptr %4) #10
  %103 = load i32, ptr %2, align 4
  ret i32 %103
}

; Function Attrs: nounwind uwtable
define i32 @FT_Select_Charmap(ptr noundef %0, i32 noundef %1) #0 {
  %3 = alloca i32, align 4
  %4 = alloca ptr, align 8
  %5 = alloca i32, align 4
  %6 = alloca ptr, align 8
  %7 = alloca ptr, align 8
  %8 = alloca i32, align 4
  store ptr %0, ptr %4, align 8, !tbaa !3
  store i32 %1, ptr %5, align 4, !tbaa !8
  call void @llvm.lifetime.start.p0(i64 8, ptr %6) #10
  call void @llvm.lifetime.start.p0(i64 8, ptr %7) #10
  %9 = load ptr, ptr %4, align 8, !tbaa !3
  %10 = icmp ne ptr %9, null
  br i1 %10, label %12, label %11

11:                                               ; preds = %2
  store i32 35, ptr %3, align 4
  store i32 1, ptr %8, align 4
  br label %64

12:                                               ; preds = %2
  %13 = load i32, ptr %5, align 4, !tbaa !8
  %14 = icmp eq i32 %13, 0
  br i1 %14, label %15, label %21

15:                                               ; preds = %12
  %16 = load ptr, ptr %4, align 8, !tbaa !3
  %17 = getelementptr inbounds nuw %struct.FT_FaceRec_, ptr %16, i32 0, i32 9
  %18 = load i32, ptr %17, align 8, !tbaa !444
  %19 = icmp ne i32 %18, 0
  br i1 %19, label %21, label %20

20:                                               ; preds = %15
  store i32 6, ptr %3, align 4
  store i32 1, ptr %8, align 4
  br label %64

21:                                               ; preds = %15, %12
  %22 = load i32, ptr %5, align 4, !tbaa !8
  %23 = icmp eq i32 %22, 1970170211
  br i1 %23, label %24, label %27

24:                                               ; preds = %21
  %25 = load ptr, ptr %4, align 8, !tbaa !3
  %26 = call i32 @find_unicode_charmap(ptr noundef %25)
  store i32 %26, ptr %3, align 4
  store i32 1, ptr %8, align 4
  br label %64

27:                                               ; preds = %21
  %28 = load ptr, ptr %4, align 8, !tbaa !3
  %29 = getelementptr inbounds nuw %struct.FT_FaceRec_, ptr %28, i32 0, i32 10
  %30 = load ptr, ptr %29, align 8, !tbaa !445
  store ptr %30, ptr %6, align 8, !tbaa !446
  %31 = load ptr, ptr %6, align 8, !tbaa !446
  %32 = icmp ne ptr %31, null
  br i1 %32, label %34, label %33

33:                                               ; preds = %27
  store i32 38, ptr %3, align 4
  store i32 1, ptr %8, align 4
  br label %64

34:                                               ; preds = %27
  %35 = load ptr, ptr %6, align 8, !tbaa !446
  %36 = load ptr, ptr %4, align 8, !tbaa !3
  %37 = getelementptr inbounds nuw %struct.FT_FaceRec_, ptr %36, i32 0, i32 9
  %38 = load i32, ptr %37, align 8, !tbaa !444
  %39 = sext i32 %38 to i64
  %40 = getelementptr inbounds ptr, ptr %35, i64 %39
  store ptr %40, ptr %7, align 8, !tbaa !446
  br label %41

41:                                               ; preds = %60, %34
  %42 = load ptr, ptr %6, align 8, !tbaa !446
  %43 = load ptr, ptr %7, align 8, !tbaa !446
  %44 = icmp ult ptr %42, %43
  br i1 %44, label %45, label %63

45:                                               ; preds = %41
  %46 = load ptr, ptr %6, align 8, !tbaa !446
  %47 = getelementptr inbounds ptr, ptr %46, i64 0
  %48 = load ptr, ptr %47, align 8, !tbaa !447
  %49 = getelementptr inbounds nuw %struct.FT_CharMapRec_, ptr %48, i32 0, i32 1
  %50 = load i32, ptr %49, align 8, !tbaa !448
  %51 = load i32, ptr %5, align 4, !tbaa !8
  %52 = icmp eq i32 %50, %51
  br i1 %52, label %53, label %59

53:                                               ; preds = %45
  %54 = load ptr, ptr %6, align 8, !tbaa !446
  %55 = getelementptr inbounds ptr, ptr %54, i64 0
  %56 = load ptr, ptr %55, align 8, !tbaa !447
  %57 = load ptr, ptr %4, align 8, !tbaa !3
  %58 = getelementptr inbounds nuw %struct.FT_FaceRec_, ptr %57, i32 0, i32 23
  store ptr %56, ptr %58, align 8, !tbaa !353
  store i32 0, ptr %3, align 4
  store i32 1, ptr %8, align 4
  br label %64

59:                                               ; preds = %45
  br label %60

60:                                               ; preds = %59
  %61 = load ptr, ptr %6, align 8, !tbaa !446
  %62 = getelementptr inbounds nuw ptr, ptr %61, i32 1
  store ptr %62, ptr %6, align 8, !tbaa !446
  br label %41, !llvm.loop !449

63:                                               ; preds = %41
  store i32 6, ptr %3, align 4
  store i32 1, ptr %8, align 4
  br label %64

64:                                               ; preds = %63, %53, %33, %24, %20, %11
  call void @llvm.lifetime.end.p0(i64 8, ptr %7) #10
  call void @llvm.lifetime.end.p0(i64 8, ptr %6) #10
  %65 = load i32, ptr %3, align 4
  ret i32 %65
}