; Function Attrs: nofree norecurse nosync nounwind memory(read, argmem: readwrite, inaccessiblemem: none) uwtable
define range(i32 0, 39) i32 @FT_Select_Charmap(ptr noundef %0, i32 noundef %1) local_unnamed_addr #2 {
  %.not = icmp eq ptr %0, null
  br i1 %.not, label %find_unicode_charmap.exit, label %3

3:                                                ; preds = %2
  switch i32 %1, label %39 [
    i32 0, label %4
    i32 1970170211, label %7
  ]

4:                                                ; preds = %3
  %5 = getelementptr inbounds nuw i8, ptr %0, i64 72
  %6 = load i32, ptr %5, align 8, !tbaa !336
  %.not20 = icmp eq i32 %6, 0
  br i1 %.not20, label %find_unicode_charmap.exit, label %39

7:                                                ; preds = %3
  %8 = getelementptr inbounds nuw i8, ptr %0, i64 80
  %9 = load ptr, ptr %8, align 8, !tbaa !337
  %.not.i = icmp eq ptr %9, null
  br i1 %.not.i, label %find_unicode_charmap.exit, label %10

10:                                               ; preds = %7
  %11 = getelementptr inbounds nuw i8, ptr %0, i64 72
  %12 = load i32, ptr %11, align 8, !tbaa !336
  %13 = sext i32 %12 to i64
  %14 = getelementptr inbounds ptr, ptr %9, i64 %13
  %15 = getelementptr inbounds i8, ptr %14, i64 -8
  %.not2427.i = icmp ult ptr %15, %9
  br i1 %.not2427.i, label %.preheader.i.preheader, label %.lr.ph.i

.lr.ph.i:                                         ; preds = %10, %.thread.i
  %16 = phi ptr [ %32, %.thread.i ], [ %15, %10 ]
  %17 = load ptr, ptr %16, align 8, !tbaa !338
  %18 = getelementptr inbounds nuw i8, ptr %17, i64 8
  %19 = load i32, ptr %18, align 8, !tbaa !379
  %20 = icmp eq i32 %19, 1970170211
  br i1 %20, label %21, label %.thread.i

21:                                               ; preds = %.lr.ph.i
  %22 = getelementptr inbounds nuw i8, ptr %17, i64 12
  %23 = load i16, ptr %22, align 4, !tbaa !380
  switch i16 %23, label %.thread.i [
    i16 3, label %24
    i16 0, label %28
  ]

24:                                               ; preds = %21
  %25 = getelementptr inbounds nuw i8, ptr %17, i64 14
  %26 = load i16, ptr %25, align 2, !tbaa !381
  %27 = icmp eq i16 %26, 10
  br i1 %27, label %find_unicode_charmap.exit.sink.split, label %.thread.i

28:                                               ; preds = %21
  %29 = getelementptr inbounds nuw i8, ptr %17, i64 14
  %30 = load i16, ptr %29, align 2, !tbaa !381
  %31 = icmp eq i16 %30, 4
  br i1 %31, label %find_unicode_charmap.exit.sink.split, label %.thread.i

.thread.i:                                        ; preds = %28, %24, %21, %.lr.ph.i
  %32 = getelementptr inbounds i8, ptr %16, i64 -8
  %.not24.i = icmp ult ptr %32, %9
  br i1 %.not24.i, label %.preheader.i.preheader, label %.lr.ph.i, !llvm.loop !382

.preheader.i.preheader:                           ; preds = %.thread.i, %10
  br label %.preheader.i

.preheader.i:                                     ; preds = %.preheader.i.preheader, %34
  %.1.i = phi ptr [ %33, %34 ], [ %14, %.preheader.i.preheader ]
  %33 = getelementptr inbounds i8, ptr %.1.i, i64 -8
  %.not25.i = icmp ult ptr %33, %9
  br i1 %.not25.i, label %find_unicode_charmap.exit, label %34

34:                                               ; preds = %.preheader.i
  %35 = load ptr, ptr %33, align 8, !tbaa !338
  %36 = getelementptr inbounds nuw i8, ptr %35, i64 8
  %37 = load i32, ptr %36, align 8, !tbaa !379
  %38 = icmp eq i32 %37, 1970170211
  br i1 %38, label %find_unicode_charmap.exit.sink.split, label %.preheader.i, !llvm.loop !383

39:                                               ; preds = %4, %3
  %40 = getelementptr inbounds nuw i8, ptr %0, i64 80
  %41 = load ptr, ptr %40, align 8, !tbaa !337
  %.not21 = icmp eq ptr %41, null
  br i1 %.not21, label %find_unicode_charmap.exit, label %42

42:                                               ; preds = %39
  %43 = getelementptr inbounds nuw i8, ptr %0, i64 72
  %44 = load i32, ptr %43, align 8, !tbaa !336
  %45 = sext i32 %44 to i64
  %46 = getelementptr inbounds ptr, ptr %41, i64 %45
  %47 = icmp sgt i32 %44, 0
  br i1 %47, label %.lr.ph, label %find_unicode_charmap.exit

48:                                               ; preds = %.lr.ph
  %49 = getelementptr inbounds nuw i8, ptr %.01627, i64 8
  %50 = icmp ult ptr %49, %46
  br i1 %50, label %.lr.ph, label %find_unicode_charmap.exit, !llvm.loop !384

.lr.ph:                                           ; preds = %42, %48
  %.01627 = phi ptr [ %49, %48 ], [ %41, %42 ]
  %51 = load ptr, ptr %.01627, align 8, !tbaa !338
  %52 = getelementptr inbounds nuw i8, ptr %51, i64 8
  %53 = load i32, ptr %52, align 8, !tbaa !379
  %54 = icmp eq i32 %53, %1
  br i1 %54, label %find_unicode_charmap.exit.sink.split, label %48

find_unicode_charmap.exit.sink.split:             ; preds = %24, %28, %34, %.lr.ph
  %.lcssa.sink.i.sink = phi ptr [ %51, %.lr.ph ], [ %35, %34 ], [ %17, %28 ], [ %17, %24 ]
  %55 = getelementptr inbounds nuw i8, ptr %0, i64 168
  store ptr %.lcssa.sink.i.sink, ptr %55, align 8, !tbaa !291
  br label %find_unicode_charmap.exit

find_unicode_charmap.exit:                        ; preds = %.preheader.i, %48, %find_unicode_charmap.exit.sink.split, %42, %7, %39, %4, %2
  %.0 = phi i32 [ 35, %2 ], [ 6, %4 ], [ 38, %39 ], [ 38, %7 ], [ 6, %42 ], [ 0, %find_unicode_charmap.exit.sink.split ], [ 6, %48 ], [ 38, %.preheader.i ]
  ret i32 %.0
}